; Function Attrs: mustprogress uwtable
define void @_ZN8QuantLib27StrippedCappedFlooredCoupon9setPricerERKN5boost10shared_ptrINS_24FloatingRateCouponPricerEEE(ptr noundef nonnull align 8 dereferenceable(192) %this, ptr noundef nonnull align 8 dereferenceable(16) %pricer) unnamed_addr #8 align 2 {
entry:
  tail call void @_ZN8QuantLib18FloatingRateCoupon9setPricerERKN5boost10shared_ptrINS_24FloatingRateCouponPricerEEE(ptr noundef nonnull align 8 dereferenceable(176) %this, ptr noundef nonnull align 8 dereferenceable(16) %pricer)
  %underlying_ = getelementptr inbounds nuw i8, ptr %this, i64 176
  %0 = load ptr, ptr %underlying_, align 8, !tbaa !50
  %cmp.not.i = icmp eq ptr %0, null
  br i1 %cmp.not.i, label %cond.false.i, label %_ZNK5boost10shared_ptrIN8QuantLib19CappedFlooredCouponEEptEv.exit, !prof !52

cond.false.i:                                     ; preds = %entry
  tail call void @_ZN5boost16assertion_failedEPKcS1_S1_l(ptr noundef nonnull @.str.11, ptr noundef nonnull @__PRETTY_FUNCTION__._ZNK5boost10shared_ptrIN8QuantLib19CappedFlooredCouponEEptEv, ptr noundef nonnull @.str.12, i64 noundef 784)
  %.pre.i = load ptr, ptr %underlying_, align 8, !tbaa !50
  br label %_ZNK5boost10shared_ptrIN8QuantLib19CappedFlooredCouponEEptEv.exit

_ZNK5boost10shared_ptrIN8QuantLib19CappedFlooredCouponEEptEv.exit: ; preds = %entry, %cond.false.i
  %1 = phi ptr [ %0, %entry ], [ %.pre.i, %cond.false.i ]
  %vtable = load ptr, ptr %1, align 8, !tbaa !33
  %vfn = getelementptr inbounds i8, ptr %vtable, i64 128
  %2 = load ptr, ptr %vfn, align 8
  tail call void %2(ptr noundef nonnull align 8 dereferenceable(216) %1, ptr noundef nonnull align 8 dereferenceable(16) %pricer)
  ret void
}